target datalayout = "e-m:e-p270:32:32-p271:32:32-p272:64:64-i64:64-i128:128-f80:128-n8:16:32:64-S128"
target triple = "x86_64-pc-linux-gnu"

%struct.darktable_t = type { %struct.dt_codepath_t, i32, i32, ptr, ptr, ptr, ptr, ptr, ptr, ptr, ptr, ptr, ptr, ptr, ptr, ptr, ptr, ptr, ptr, ptr, ptr, ptr, ptr, ptr, ptr, ptr, ptr, ptr, ptr, ptr, [64 x %struct.dt_pthread_mutex_t], %struct.dt_pthread_mutex_t, %struct.dt_pthread_mutex_t, %struct.dt_pthread_mutex_t, %struct.dt_pthread_mutex_t, %struct.dt_pthread_mutex_t, ptr, ptr, ptr, ptr, ptr, ptr, ptr, ptr, ptr, ptr, ptr, ptr, ptr, %struct.dt_lua_state_t, ptr, double, ptr, i32, [47 x i32], i32, i32, ptr, ptr, %struct.dt_sys_resources_t, %struct.dt_backthumb_t, %struct.dt_gimp_t }
%struct.dt_codepath_t = type { i8, [3 x i8] }
%struct.dt_pthread_mutex_t = type { %union.pthread_mutex_t }
%union.pthread_mutex_t = type { %struct.__pthread_mutex_s }
%struct.__pthread_mutex_s = type { i32, i32, i32, i32, i32, i16, i16, %struct.__pthread_internal_list }
%struct.__pthread_internal_list = type { ptr, ptr }
%struct.dt_lua_state_t = type { i32 }
%struct.dt_sys_resources_t = type { i64, i64, ptr, ptr, i32 }
%struct.dt_backthumb_t = type { double, double, i32, i32, i32, i32 }
%struct.dt_gimp_t = type { i32, ptr, ptr, i32, i32 }

@darktable = external global %struct.darktable_t, align 8
@.str = private unnamed_addr constant [41 x i8] c"[sql] %s:%d, function %s(): prepare \22%s\22\00", align 1
@.str.1 = private unnamed_addr constant [115 x i8] c"generated/home/dtcxzyw/WorkSpace/Projects/compilers/llvm-opt-benchmark/bench/darktable/darktable/src/common/tags.c\00", align 1
@stderr = external global ptr, align 8
@.str.3 = private unnamed_addr constant [53 x i8] c"sqlite3 error: %s:%d, function %s(), query \22%s\22: %s\0A\00", align 1
@.str.4 = private unnamed_addr constant [41 x i8] c"sqlite3 error: %s:%d, function %s(): %s\0A\00", align 1
@.str.57 = private unnamed_addr constant [50 x i8] c"UPDATE data.tags SET synonyms = ?2 WHERE id = ?1 \00", align 1
@.str.60 = private unnamed_addr constant [5 x i8] c", %s\00", align 1
@__FUNCTION__.dt_tag_add_synonym = private unnamed_addr constant [19 x i8] c"dt_tag_add_synonym\00", align 1

; Function Attrs: nounwind uwtable
define void @dt_tag_add_synonym(i32 noundef %0, ptr noundef %1) #0 {
  %3 = alloca i32, align 4
  %4 = alloca ptr, align 8
  %5 = alloca ptr, align 8
  %6 = alloca ptr, align 8
  %7 = alloca i32, align 4
  %8 = alloca i32, align 4
  %9 = alloca i32, align 4
  store i32 %0, ptr %3, align 4, !tbaa !52
  store ptr %1, ptr %4, align 8, !tbaa !6
  call void @llvm.lifetime.start.p0(i64 8, ptr %5) #8
  %10 = load i32, ptr %3, align 4, !tbaa !52
  %11 = call ptr @dt_tag_get_synonyms(i32 noundef %10)
  store ptr %11, ptr %5, align 8, !tbaa !6
  %12 = load ptr, ptr %5, align 8, !tbaa !6
  %13 = icmp ne ptr %12, null
  br i1 %13, label %14, label %16

14:                                               ; preds = %2
  %15 = load ptr, ptr %4, align 8, !tbaa !6
  call void (ptr, ptr, ...) @dt_util_str_cat(ptr noundef %5, ptr noundef @.str.60, ptr noundef %15)
  br label %19

16:                                               ; preds = %2
  %17 = load ptr, ptr %4, align 8, !tbaa !6
  %18 = call noalias ptr @g_strdup(ptr noundef %17)
  store ptr %18, ptr %5, align 8, !tbaa !6
  br label %19

19:                                               ; preds = %16, %14
  call void @llvm.lifetime.start.p0(i64 8, ptr %6) #8
  br label %20

20:                                               ; preds = %19
  br label %21

21:                                               ; preds = %20
  %22 = load i32, ptr getelementptr inbounds nuw (%struct.darktable_t, ptr @darktable, i32 0, i32 2), align 8, !tbaa !14
  %23 = and i32 256, %22
  %24 = icmp ne i32 %23, 0
  br i1 %24, label %25, label %31

25:                                               ; preds = %21
  %26 = load i32, ptr getelementptr inbounds nuw (%struct.darktable_t, ptr @darktable, i32 0, i32 2), align 8, !tbaa !14
  %27 = xor i32 %26, -1
  %28 = and i32 0, %27
  %29 = icmp ne i32 %28, 0
  br i1 %29, label %31, label %30

30:                                               ; preds = %25
  call void (ptr, ...) @dt_print_ext(ptr noundef @.str, ptr noundef @.str.1, i32 noundef 1628, ptr noundef @__FUNCTION__.dt_tag_add_synonym, ptr noundef @.str.57)
  br label %31

31:                                               ; preds = %30, %25, %21
  br label %32

32:                                               ; preds = %31
  br label %33

33:                                               ; preds = %32
  call void @llvm.lifetime.start.p0(i64 4, ptr %7) #8
  %34 = load ptr, ptr getelementptr inbounds nuw (%struct.darktable_t, ptr @darktable, i32 0, i32 18), align 8, !tbaa !51
  %35 = call ptr @dt_database_get(ptr noundef %34)
  %36 = call i32 @sqlite3_prepare_v2(ptr noundef %35, ptr noundef @.str.57, i32 noundef -1, ptr noundef %6, ptr noundef null)
  store i32 %36, ptr %7, align 4, !tbaa !52
  %37 = load i32, ptr %7, align 4, !tbaa !52
  %38 = icmp ne i32 %37, 0
  br i1 %38, label %39, label %45

39:                                               ; preds = %33
  %40 = load ptr, ptr @stderr, align 8, !tbaa !53
  %41 = load ptr, ptr getelementptr inbounds nuw (%struct.darktable_t, ptr @darktable, i32 0, i32 18), align 8, !tbaa !51
  %42 = call ptr @dt_database_get(ptr noundef %41)
  %43 = call ptr @sqlite3_errmsg(ptr noundef %42)
  %44 = call i32 (ptr, ptr, ...) @fprintf(ptr noundef %40, ptr noundef @.str.3, ptr noundef @.str.1, i32 noundef 1628, ptr noundef @__FUNCTION__.dt_tag_add_synonym, ptr noundef @.str.57, ptr noundef %43) #8
  br label %45

45:                                               ; preds = %39, %33
  call void @llvm.lifetime.end.p0(i64 4, ptr %7) #8
  br label %46

46:                                               ; preds = %45
  br label %47

47:                                               ; preds = %46
  call void @llvm.lifetime.start.p0(i64 4, ptr %8) #8
  %48 = load ptr, ptr %6, align 8, !tbaa !55
  %49 = load i32, ptr %3, align 4, !tbaa !52
  %50 = call i32 @sqlite3_bind_int(ptr noundef %48, i32 noundef 1, i32 noundef %49)
  store i32 %50, ptr %8, align 4, !tbaa !52
  %51 = load i32, ptr %8, align 4, !tbaa !52
  %52 = icmp ne i32 %51, 0
  br i1 %52, label %53, label %59

53:                                               ; preds = %47
  %54 = load ptr, ptr @stderr, align 8, !tbaa !53
  %55 = load ptr, ptr getelementptr inbounds nuw (%struct.darktable_t, ptr @darktable, i32 0, i32 18), align 8, !tbaa !51
  %56 = call ptr @dt_database_get(ptr noundef %55)
  %57 = call ptr @sqlite3_errmsg(ptr noundef %56)
  %58 = call i32 (ptr, ptr, ...) @fprintf(ptr noundef %54, ptr noundef @.str.4, ptr noundef @.str.1, i32 noundef 1629, ptr noundef @__FUNCTION__.dt_tag_add_synonym, ptr noundef %57) #8
  br label %59

59:                                               ; preds = %53, %47
  call void @llvm.lifetime.end.p0(i64 4, ptr %8) #8
  call void @llvm.lifetime.start.p0(i64 4, ptr %9) #8
  %60 = load ptr, ptr %6, align 8, !tbaa !55
  %61 = load ptr, ptr %5, align 8, !tbaa !6
  %62 = call i32 @sqlite3_bind_text(ptr noundef %60, i32 noundef 2, ptr noundef %61, i32 noundef -1, ptr noundef inttoptr (i64 -1 to ptr))
  store i32 %62, ptr %9, align 4, !tbaa !52
  %63 = load i32, ptr %9, align 4, !tbaa !52
  %64 = icmp ne i32 %63, 0
  br i1 %64, label %65, label %71

65:                                               ; preds = %59
  %66 = load ptr, ptr @stderr, align 8, !tbaa !53
  %67 = load ptr, ptr getelementptr inbounds nuw (%struct.darktable_t, ptr @darktable, i32 0, i32 18), align 8, !tbaa !51
  %68 = call ptr @dt_database_get(ptr noundef %67)
  %69 = call ptr @sqlite3_errmsg(ptr noundef %68)
  %70 = call i32 (ptr, ptr, ...) @fprintf(ptr noundef %66, ptr noundef @.str.4, ptr noundef @.str.1, i32 noundef 1630, ptr noundef @__FUNCTION__.dt_tag_add_synonym, ptr noundef %69) #8
  br label %71

71:                                               ; preds = %65, %59
  call void @llvm.lifetime.end.p0(i64 4, ptr %9) #8
  %72 = load ptr, ptr %6, align 8, !tbaa !55
  %73 = call i32 @sqlite3_step(ptr noundef %72)
  %74 = load ptr, ptr %6, align 8, !tbaa !55
  %75 = call i32 @sqlite3_finalize(ptr noundef %74)
  %76 = load ptr, ptr %5, align 8, !tbaa !6
  call void @g_free(ptr noundef %76)
  call void @llvm.lifetime.end.p0(i64 8, ptr %6) #8
  call void @llvm.lifetime.end.p0(i64 8, ptr %5) #8
  ret void
}