; Function Attrs: nounwind uwtable
define void @dt_tag_add_synonym(i32 noundef %0, ptr noundef %1) local_unnamed_addr #0 {
  %3 = alloca ptr, align 8
  %4 = alloca ptr, align 8
  call void @llvm.lifetime.start.p0(i64 8, ptr nonnull %3) #11
  %5 = tail call ptr @dt_tag_get_synonyms(i32 noundef %0)
  store ptr %5, ptr %3, align 8, !tbaa !57
  %.not = icmp eq ptr %5, null
  br i1 %.not, label %7, label %6

6:                                                ; preds = %2
  call void (ptr, ptr, ...) @dt_util_str_cat(ptr noundef nonnull %3, ptr noundef nonnull @.str.60, ptr noundef %1) #11
  br label %9

7:                                                ; preds = %2
  %8 = tail call noalias ptr @g_strdup(ptr noundef %1) #11
  store ptr %8, ptr %3, align 8, !tbaa !57
  br label %9

9:                                                ; preds = %7, %6
  call void @llvm.lifetime.start.p0(i64 8, ptr nonnull %4) #11
  %10 = load i32, ptr getelementptr inbounds nuw (i8, ptr @darktable, i64 8), align 8, !tbaa !9
  %11 = and i32 %10, 256
  %.not6 = icmp eq i32 %11, 0
  br i1 %.not6, label %13, label %12

12:                                               ; preds = %9
  call void (ptr, ...) @dt_print_ext(ptr noundef nonnull @.str, ptr noundef nonnull @.str.1, i32 noundef 1628, ptr noundef nonnull @__FUNCTION__.dt_tag_add_synonym, ptr noundef nonnull @.str.57) #11
  br label %13

13:                                               ; preds = %12, %9
  %14 = load ptr, ptr getelementptr inbounds nuw (i8, ptr @darktable, i64 136), align 8, !tbaa !49
  %15 = call ptr @dt_database_get(ptr noundef %14) #11
  %16 = call i32 @sqlite3_prepare_v2(ptr noundef %15, ptr noundef nonnull @.str.57, i32 noundef -1, ptr noundef nonnull %4, ptr noundef null) #11
  %.not7 = icmp eq i32 %16, 0
  br i1 %.not7, label %23, label %17

17:                                               ; preds = %13
  %18 = load ptr, ptr @stderr, align 8, !tbaa !50
  %19 = load ptr, ptr getelementptr inbounds nuw (i8, ptr @darktable, i64 136), align 8, !tbaa !49
  %20 = call ptr @dt_database_get(ptr noundef %19) #11
  %21 = call ptr @sqlite3_errmsg(ptr noundef %20) #11
  %22 = call i32 (ptr, ptr, ...) @fprintf(ptr noundef %18, ptr noundef nonnull @.str.3, ptr noundef nonnull @.str.1, i32 noundef 1628, ptr noundef nonnull @__FUNCTION__.dt_tag_add_synonym, ptr noundef nonnull @.str.57, ptr noundef %21) #12
  br label %23

23:                                               ; preds = %17, %13
  %24 = load ptr, ptr %4, align 8, !tbaa !52
  %25 = call i32 @sqlite3_bind_int(ptr noundef %24, i32 noundef 1, i32 noundef %0) #11
  %.not8 = icmp eq i32 %25, 0
  br i1 %.not8, label %32, label %26

26:                                               ; preds = %23
  %27 = load ptr, ptr @stderr, align 8, !tbaa !50
  %28 = load ptr, ptr getelementptr inbounds nuw (i8, ptr @darktable, i64 136), align 8, !tbaa !49
  %29 = call ptr @dt_database_get(ptr noundef %28) #11
  %30 = call ptr @sqlite3_errmsg(ptr noundef %29) #11
  %31 = call i32 (ptr, ptr, ...) @fprintf(ptr noundef %27, ptr noundef nonnull @.str.4, ptr noundef nonnull @.str.1, i32 noundef 1629, ptr noundef nonnull @__FUNCTION__.dt_tag_add_synonym, ptr noundef %30) #12
  br label %32

32:                                               ; preds = %26, %23
  %33 = load ptr, ptr %4, align 8, !tbaa !52
  %34 = load ptr, ptr %3, align 8, !tbaa !57
  %35 = call i32 @sqlite3_bind_text(ptr noundef %33, i32 noundef 2, ptr noundef %34, i32 noundef -1, ptr noundef nonnull inttoptr (i64 -1 to ptr)) #11
  %.not9 = icmp eq i32 %35, 0
  br i1 %.not9, label %42, label %36

36:                                               ; preds = %32
  %37 = load ptr, ptr @stderr, align 8, !tbaa !50
  %38 = load ptr, ptr getelementptr inbounds nuw (i8, ptr @darktable, i64 136), align 8, !tbaa !49
  %39 = call ptr @dt_database_get(ptr noundef %38) #11
  %40 = call ptr @sqlite3_errmsg(ptr noundef %39) #11
  %41 = call i32 (ptr, ptr, ...) @fprintf(ptr noundef %37, ptr noundef nonnull @.str.4, ptr noundef nonnull @.str.1, i32 noundef 1630, ptr noundef nonnull @__FUNCTION__.dt_tag_add_synonym, ptr noundef %40) #12
  br label %42

42:                                               ; preds = %36, %32
  %43 = load ptr, ptr %4, align 8, !tbaa !52
  %44 = call i32 @sqlite3_step(ptr noundef %43) #11
  %45 = load ptr, ptr %4, align 8, !tbaa !52
  %46 = call i32 @sqlite3_finalize(ptr noundef %45) #11
  %47 = load ptr, ptr %3, align 8, !tbaa !57
  call void @g_free(ptr noundef %47) #11
  call void @llvm.lifetime.end.p0(i64 8, ptr nonnull %4) #11
  call void @llvm.lifetime.end.p0(i64 8, ptr nonnull %3) #11
  ret void
}